target datalayout = "e-m:e-p270:32:32-p271:32:32-p272:64:64-i64:64-i128:128-f80:128-n8:16:32:64-S128"
target triple = "x86_64-pc-linux-gnu"

@.str.4 = private unnamed_addr constant [2 x i8] c"\0A\00", align 1
@.str.5 = private unnamed_addr constant [38 x i8] c"    write_spice [options] [filename]\0A\00", align 1
@.str.6 = private unnamed_addr constant [52 x i8] c"Write the current design to an SPICE netlist file.\0A\00", align 1
@.str.7 = private unnamed_addr constant [17 x i8] c"    -big_endian\0A\00", align 1
@.str.8 = private unnamed_addr constant [53 x i8] c"        generate multi-bit ports in MSB first order\0A\00", align 1
@.str.9 = private unnamed_addr constant [32 x i8] c"        (default is LSB first)\0A\00", align 1
@.str.10 = private unnamed_addr constant [19 x i8] c"    -neg net_name\0A\00", align 1
@.str.11 = private unnamed_addr constant [56 x i8] c"        set the net name for constant 0 (default: Vss)\0A\00", align 1
@.str.12 = private unnamed_addr constant [19 x i8] c"    -pos net_name\0A\00", align 1
@.str.13 = private unnamed_addr constant [56 x i8] c"        set the net name for constant 1 (default: Vdd)\0A\00", align 1
@.str.14 = private unnamed_addr constant [25 x i8] c"    -buf DC|subckt_name\0A\00", align 1
@.str.15 = private unnamed_addr constant [55 x i8] c"        set the name for jumper element (default: DC)\0A\00", align 1
@.str.16 = private unnamed_addr constant [42 x i8] c"        (used to connect different nets)\0A\00", align 1
@.str.17 = private unnamed_addr constant [16 x i8] c"    -nc_prefix\0A\00", align 1
@.str.18 = private unnamed_addr constant [54 x i8] c"        prefix for not-connected nets (default: _NC)\0A\00", align 1
@.str.19 = private unnamed_addr constant [13 x i8] c"    -inames\0A\00", align 1
@.str.20 = private unnamed_addr constant [64 x i8] c"        include names of internal ($-prefixed) nets in outputs\0A\00", align 1
@.str.21 = private unnamed_addr constant [49 x i8] c"        (default is to use net numbers instead)\0A\00", align 1
@.str.22 = private unnamed_addr constant [21 x i8] c"    -top top_module\0A\00", align 1
@.str.23 = private unnamed_addr constant [55 x i8] c"        set the specified module as design top module\0A\00", align 1

; Function Attrs: mustprogress uwtable
define internal void @_ZN12_GLOBAL__N_112SpiceBackend4helpEv(ptr noundef nonnull align 8 dereferenceable(136) %0) unnamed_addr #4 align 2 {
  %2 = alloca ptr, align 8
  store ptr %0, ptr %2, align 8, !tbaa !6
  call void (ptr, ...) @_ZN5Yosys3logEPKcz(ptr noundef @.str.4)
  call void (ptr, ...) @_ZN5Yosys3logEPKcz(ptr noundef @.str.5)
  call void (ptr, ...) @_ZN5Yosys3logEPKcz(ptr noundef @.str.4)
  call void (ptr, ...) @_ZN5Yosys3logEPKcz(ptr noundef @.str.6)
  call void (ptr, ...) @_ZN5Yosys3logEPKcz(ptr noundef @.str.4)
  call void (ptr, ...) @_ZN5Yosys3logEPKcz(ptr noundef @.str.7)
  call void (ptr, ...) @_ZN5Yosys3logEPKcz(ptr noundef @.str.8)
  call void (ptr, ...) @_ZN5Yosys3logEPKcz(ptr noundef @.str.9)
  call void (ptr, ...) @_ZN5Yosys3logEPKcz(ptr noundef @.str.4)
  call void (ptr, ...) @_ZN5Yosys3logEPKcz(ptr noundef @.str.10)
  call void (ptr, ...) @_ZN5Yosys3logEPKcz(ptr noundef @.str.11)
  call void (ptr, ...) @_ZN5Yosys3logEPKcz(ptr noundef @.str.4)
  call void (ptr, ...) @_ZN5Yosys3logEPKcz(ptr noundef @.str.12)
  call void (ptr, ...) @_ZN5Yosys3logEPKcz(ptr noundef @.str.13)
  call void (ptr, ...) @_ZN5Yosys3logEPKcz(ptr noundef @.str.4)
  call void (ptr, ...) @_ZN5Yosys3logEPKcz(ptr noundef @.str.14)
  call void (ptr, ...) @_ZN5Yosys3logEPKcz(ptr noundef @.str.15)
  call void (ptr, ...) @_ZN5Yosys3logEPKcz(ptr noundef @.str.16)
  call void (ptr, ...) @_ZN5Yosys3logEPKcz(ptr noundef @.str.4)
  call void (ptr, ...) @_ZN5Yosys3logEPKcz(ptr noundef @.str.17)
  call void (ptr, ...) @_ZN5Yosys3logEPKcz(ptr noundef @.str.18)
  call void (ptr, ...) @_ZN5Yosys3logEPKcz(ptr noundef @.str.4)
  call void (ptr, ...) @_ZN5Yosys3logEPKcz(ptr noundef @.str.19)
  call void (ptr, ...) @_ZN5Yosys3logEPKcz(ptr noundef @.str.20)
  call void (ptr, ...) @_ZN5Yosys3logEPKcz(ptr noundef @.str.21)
  call void (ptr, ...) @_ZN5Yosys3logEPKcz(ptr noundef @.str.4)
  call void (ptr, ...) @_ZN5Yosys3logEPKcz(ptr noundef @.str.22)
  call void (ptr, ...) @_ZN5Yosys3logEPKcz(ptr noundef @.str.23)
  call void (ptr, ...) @_ZN5Yosys3logEPKcz(ptr noundef @.str.4)
  ret void
}